(dp1
S'OriginalConfig'
p2
ccopy_reg
_reconstructor
p3
(cWMCore.Configuration
Configuration
p4
c__builtin__
object
p5
NtRp6
(dp7
S'Site'
p8
g3
(cWMCore.Configuration
ConfigSection
p9
g5
NtRp10
(dp11
S'_internal_documentation'
p12
S''
sS'_internal_settings'
p13
c__builtin__
set
p14
((lp15
S'storageSite'
p16
atRp17
sS'_internal_name'
p18
g8
sS'_internal_docstrings'
p19
(dp20
sS'_internal_children'
p21
g14
((ltRp22
sg16
S'T2_PL_Swierk'
p23
sS'_internal_parent_ref'
p24
NsbsS'_internal_sections'
p25
(lp26
S'User'
p27
aS'General'
p28
aS'JobType'
p29
aS'Data'
p30
ag8
asg28
g3
(g9
g5
NtRp31
(dp32
g12
S''
sg13
g14
((lp33
S'workArea'
p34
aS'requestName'
p35
atRp36
sg18
g28
sg19
(dp37
sg21
g14
((ltRp38
sg35
S'FSQ_Run2015C_lowPU_09102016_data_FSQJets3'
p39
sg24
Nsg34
S'FSQ_Run2015C_lowPU_09102016'
p40
sbsS'_internal_webapps'
p41
(lp42
sg27
g3
(g9
g5
NtRp43
(dp44
g12
S''
sg13
g14
((ltRp45
sg18
g27
sg19
(dp46
sg21
g14
((ltRp47
sg24
NsbsS'_internal_components'
p48
(lp49
sg30
g3
(g9
g5
NtRp50
(dp51
S'inputDataset'
p52
S'/FSQJets3/Run2015C_25ns-16Dec2015-v1/MINIAOD'
p53
sS'outputDatasetTag'
p54
g39
sS'unitsPerJob'
p55
I10
sg12
S''
sg13
g14
((lp56
g52
ag55
ag54
aS'splitting'
p57
aS'lumiMask'
p58
atRp59
sg18
g30
sg57
S'LumiBased'
p60
sg19
(dp61
sg21
g14
((ltRp62
sg24
Nsg58
S'/afs/cern.ch/user/m/misiura/CMSSW_7_6_6/src/CommonFSQFramework/Skim/lumi/Cert_254986-255031_13TeV_PromptReco_Collisions15_LOWPU_25ns_JSON.txt'
p63
sbsg29
g3
(g9
g5
NtRp64
(dp65
g12
S''
sg13
g14
((lp66
S'psetName'
p67
aS'pluginName'
p68
atRp69
sg18
g29
sg19
(dp70
sg68
S'Analysis'
p71
sg21
g14
((ltRp72
sg67
S'S0_makePAT_76.py'
p73
sg24
NsbsbsS'voGroup'
p74
S''
sS'Server'
p75
S'cmsweb.cern.ch'
p76
sS'instance'
p77
S'prod'
p78
sS'RequestName'
p79
S'161009_122648:mmisiura_crab_FSQ_Run2015C_lowPU_09102016_data_FSQJets3'
p80
sS'voRole'
p81
S'NULL'
p82
sS'Port'
p83
S''
s.